Certificate:
    Data:
        Version: 3 (0x2)
        Serial Number: 4 (0x4)
        Signature Algorithm: sha256WithRSAEncryption
        Issuer: C=US, O=Google, OU=Enterprise, CN=Enterprise Subordinate CA
        Validity
            Not Before: Mar  7 13:03:42 2022 GMT
            Not After : Jun 14 13:03:42 2024 GMT
        Subject: C=US, O=Google, OU=Enterprise, CN=localhost
        Subject Public Key Info:
            Public Key Algorithm: rsaEncryption
                RSA Public-Key: (2048 bit)
                Modulus:
                    00:bf:f1:2e:54:2e:42:3a:a0:bf:c2:6a:85:f5:06:
                    40:16:83:51:3f:55:6c:01:8e:9a:2b:4c:21:db:a8:
                    8a:31:77:70:77:c1:82:22:6c:f5:99:e6:6e:d1:8d:
                    3f:70:ff:d6:52:d3:de:c1:0a:97:41:68:ad:67:41:
                    1c:47:95:4d:88:ae:a3:92:36:5d:a0:12:b1:d8:8d:
                    b2:84:25:6a:68:c5:f3:84:a7:58:1c:5f:05:f5:74:
                    ef:f2:8a:bc:39:bf:9a:70:37:6d:12:9c:a6:be:4c:
                    32:73:4b:77:8a:23:f2:a3:15:20:19:49:43:b5:21:
                    37:09:b7:18:5f:ae:70:76:c5:61:0d:e5:eb:3c:bf:
                    14:fa:ec:d9:05:2c:6d:2f:a4:e0:07:49:a2:27:7d:
                    59:3d:e4:16:5a:cb:64:53:18:8f:48:a6:ef:12:b6:
                    ff:fd:19:92:ef:7d:56:02:bf:fc:e2:57:7c:07:4a:
                    c0:81:f2:ab:3e:3d:4b:59:2b:d4:d3:6a:9f:d0:da:
                    4a:ff:66:6f:ea:95:90:7d:c3:3a:35:47:66:ad:75:
                    05:e1:f9:ed:3f:3a:a1:83:8d:8f:39:8e:63:4e:dc:
                    96:4a:95:19:5f:9e:59:1e:7b:f3:5f:83:d6:a5:c4:
                    94:8e:79:5a:64:48:c6:0e:61:ad:42:3c:b2:60:75:
                    4b:85
                Exponent: 65537 (0x10001)
        X509v3 extensions:
            X509v3 Key Usage: critical
                Digital Signature
            X509v3 Basic Constraints: 
                CA:FALSE
            X509v3 Extended Key Usage: 
                TLS Web Server Authentication
            X509v3 Subject Key Identifier: 
                DE:03:FE:26:74:D9:5D:70:32:4A:0C:6E:BB:CF:13:EA:89:1C:00:DE
            X509v3 Authority Key Identifier: 
                keyid:B7:BA:B0:02:A1:E7:BE:34:C6:C1:05:5C:66:78:E5:BB:53:5D:A1:54

            Authority Information Access: 
                CA Issuers - URI:http://pki.esodemoapp2.com/ca/tls-ca.cer

            X509v3 CRL Distribution Points: 

                Full Name:
                  URI:http://pki.esodemoapp2.com/ca/tls-ca.crl

            X509v3 Subject Alternative Name: 
                DNS:localhost
    Signature Algorithm: sha256WithRSAEncryption
         92:25:97:bd:02:01:8f:5f:f2:b0:45:fe:47:56:ec:6f:37:c3:
         5e:04:9b:ea:af:b3:4f:bb:07:ed:89:40:81:2b:0d:32:25:07:
         88:01:0a:14:c4:ad:b3:f6:e4:0b:45:1b:57:b7:45:9c:10:11:
         1a:04:32:31:68:e9:77:86:4f:52:27:d8:50:4c:06:c4:4e:de:
         ab:3b:23:7c:e0:38:6e:4b:5a:fc:84:63:51:cc:d6:a0:19:23:
         07:b6:1e:fd:5e:f6:fa:f6:78:dc:7b:e5:23:c1:cf:e9:62:3e:
         49:78:47:f2:1c:46:5b:af:f5:59:ba:f9:aa:40:f9:55:0e:20:
         d4:fb:c6:25:98:40:9b:3c:be:58:e4:3c:fd:0c:86:10:8e:7a:
         7e:2b:2d:b0:eb:c9:05:dd:b4:f4:65:17:b7:a3:95:64:98:1b:
         97:1a:23:27:b0:5a:6f:cc:c1:ad:c0:87:cb:c3:5a:65:d2:7a:
         82:9b:54:c6:c2:ca:b6:08:c2:72:2a:3f:97:73:06:2f:95:6e:
         36:63:d8:68:b6:62:aa:50:28:6b:fb:8b:33:6e:a2:9e:39:89:
         bc:4c:e1:de:e4:53:16:62:5d:eb:a5:e6:27:3e:68:fc:a8:f1:
         89:4b:aa:c3:7d:73:1a:bf:d3:57:df:13:04:c3:aa:9e:b4:89:
         9b:49:63:8c
-----BEGIN CERTIFICATE-----
MIIEJjCCAw6gAwIBAgIBBDANBgkqhkiG9w0BAQsFADBXMQswCQYDVQQGEwJVUzEP
MA0GA1UECgwGR29vZ2xlMRMwEQYDVQQLDApFbnRlcnByaXNlMSIwIAYDVQQDDBlF
bnRlcnByaXNlIFN1Ym9yZGluYXRlIENBMB4XDTIyMDMwNzEzMDM0MloXDTI0MDYx
NDEzMDM0MlowRzELMAkGA1UEBhMCVVMxDzANBgNVBAoMBkdvb2dsZTETMBEGA1UE
CwwKRW50ZXJwcmlzZTESMBAGA1UEAwwJbG9jYWxob3N0MIIBIjANBgkqhkiG9w0B
AQEFAAOCAQ8AMIIBCgKCAQEAv/EuVC5COqC/wmqF9QZAFoNRP1VsAY6aK0wh26iK
MXdwd8GCImz1meZu0Y0/cP/WUtPewQqXQWitZ0EcR5VNiK6jkjZdoBKx2I2yhCVq
aMXzhKdYHF8F9XTv8oq8Ob+acDdtEpymvkwyc0t3iiPyoxUgGUlDtSE3CbcYX65w
dsVhDeXrPL8U+uzZBSxtL6TgB0miJ31ZPeQWWstkUxiPSKbvErb//RmS731WAr/8
4ld8B0rAgfKrPj1LWSvU02qf0NpK/2Zv6pWQfcM6NUdmrXUF4fntPzqhg42POY5j
TtyWSpUZX55ZHnvzX4PWpcSUjnlaZEjGDmGtQjyyYHVLhQIDAQABo4IBCzCCAQcw
DgYDVR0PAQH/BAQDAgeAMAkGA1UdEwQCMAAwEwYDVR0lBAwwCgYIKwYBBQUHAwEw
HQYDVR0OBBYEFN4D/iZ02V1wMkoMbrvPE+qJHADeMB8GA1UdIwQYMBaAFLe6sAKh
5740xsEFXGZ45btTXaFUMEQGCCsGAQUFBwEBBDgwNjA0BggrBgEFBQcwAoYoaHR0
cDovL3BraS5lc29kZW1vYXBwMi5jb20vY2EvdGxzLWNhLmNlcjA5BgNVHR8EMjAw
MC6gLKAqhihodHRwOi8vcGtpLmVzb2RlbW9hcHAyLmNvbS9jYS90bHMtY2EuY3Js
MBQGA1UdEQQNMAuCCWxvY2FsaG9zdDANBgkqhkiG9w0BAQsFAAOCAQEAkiWXvQIB
j1/ysEX+R1bsbzfDXgSb6q+zT7sH7YlAgSsNMiUHiAEKFMSts/bkC0UbV7dFnBAR
GgQyMWjpd4ZPUifYUEwGxE7eqzsjfOA4bkta/IRjUczWoBkjB7Ye/V72+vZ43Hvl
I8HP6WI+SXhH8hxGW6/1Wbr5qkD5VQ4g1PvGJZhAmzy+WOQ8/QyGEI56fistsOvJ
Bd209GUXt6OVZJgblxojJ7Bab8zBrcCHy8NaZdJ6gptUxsLKtgjCcio/l3MGL5Vu
NmPYaLZiqlAoa/uLM26injmJvEzh3uRTFmJd66XmJz5o/KjxiUuqw31zGr/TV98T
BMOqnrSJm0ljjA==
-----END CERTIFICATE-----
