Certificate:
    Data:
        Version: 3 (0x2)
        Serial Number: 26 (0x1a)
        Signature Algorithm: sha256WithRSAEncryption
        Issuer: C=US, O=Google, OU=Enterprise, CN=Single Root CA
        Validity
            Not Before: Jun 11 11:25:13 2024 GMT
            Not After : Jun 11 11:25:13 2034 GMT
        Subject: C=US, O=Google, OU=Enterprise, CN=localhost
        Subject Public Key Info:
            Public Key Algorithm: rsaEncryption
                Public-Key: (2048 bit)
                Modulus:
                    00:bd:bd:bf:7a:7b:e7:cd:db:06:30:1c:bc:7e:ef:
                    b0:9c:64:30:c3:c3:65:2c:f7:18:2b:6d:f4:fa:9c:
                    05:c3:e5:b1:3a:fc:41:52:14:e5:6a:45:d9:f9:b4:
                    2e:92:81:c9:96:bd:f3:e8:31:be:51:61:87:f1:a7:
                    67:1e:26:89:0f:be:9f:20:eb:66:a2:78:0d:31:ad:
                    1d:b7:2d:0f:54:a9:e9:be:8b:61:77:fd:88:78:91:
                    50:80:46:ed:a4:e2:ff:1b:3d:67:bc:2c:f4:09:2a:
                    62:c9:e9:93:6f:53:2b:3d:9b:e9:25:03:ad:3a:c8:
                    1e:af:6f:90:73:a4:d3:e7:d8:ec:4a:01:d5:c9:09:
                    cb:18:69:4a:a1:73:3f:2f:e1:13:ae:27:10:37:d9:
                    74:f6:a4:c6:ba:46:7a:a0:61:1a:7d:ac:1d:e8:31:
                    6e:90:99:bf:8e:68:1e:a5:bb:d2:7f:71:58:eb:24:
                    ed:1b:27:e1:6a:7a:90:7f:6c:91:21:16:71:59:d8:
                    94:f1:ed:7f:ff:38:62:4a:83:ec:4e:ed:fe:fb:33:
                    74:42:b4:91:cc:9c:95:52:64:6b:0e:ec:74:e0:6e:
                    d5:a5:f5:e3:e4:6e:ac:bf:45:b7:74:af:b9:be:85:
                    c1:a7:09:42:95:f0:14:83:99:aa:ac:bf:5c:cb:53:
                    50:03
                Exponent: 65537 (0x10001)
        X509v3 extensions:
            X509v3 Key Usage: critical
                Digital Signature
            X509v3 Basic Constraints: 
                CA:FALSE
            X509v3 Extended Key Usage: 
                TLS Web Server Authentication
            X509v3 Subject Key Identifier: 
                B5:E9:3D:35:4B:17:1B:7E:60:DE:B1:BC:31:EA:C0:82:EB:C4:45:BC
            X509v3 Authority Key Identifier: 
                EC:F0:EA:53:53:3F:9F:23:DC:C1:0E:31:10:37:07:DE:DE:E7:6E:F3
            Authority Information Access: 
                CA Issuers - URI:http://pki.esodemoapp2.com/ca/root-ca.cer
            X509v3 CRL Distribution Points: 
                Full Name:
                  URI:http://pki.esodemoapp2.com/ca/root-ca.crl
            X509v3 Subject Alternative Name: 
                DNS:localhost, IP Address:127.0.0.1
    Signature Algorithm: sha256WithRSAEncryption
    Signature Value:
        95:3f:c1:3b:c1:f1:17:81:9c:4c:d2:7d:32:4c:3f:5e:bf:2b:
        4c:4d:fa:91:4a:67:34:dc:8d:46:78:86:8c:6f:24:1d:a7:d1:
        fe:a4:25:81:9a:69:0d:27:1d:2d:42:d5:e2:cb:8b:07:e3:6d:
        5d:ef:f5:1e:e2:4f:f2:d9:7c:11:02:63:ef:ac:bf:a5:76:ba:
        eb:b4:49:24:92:3b:f0:01:a6:64:d7:8d:86:db:cd:c7:1f:33:
        79:7f:ad:73:3f:5d:e4:aa:ac:50:63:67:e4:ae:a9:7c:7a:3b:
        00:01:07:90:65:b4:e3:c5:93:6a:06:9a:8e:1d:ed:c1:66:94:
        5e:bb:a1:40:09:eb:b7:44:fc:a7:6c:fb:1e:e3:16:6d:45:6b:
        bd:d8:91:69:12:8b:ee:01:b8:6c:eb:90:db:7b:d0:c9:7d:fc:
        57:46:a6:91:e7:dd:11:bd:eb:74:f8:a6:74:2e:0b:fd:9e:79:
        cf:bf:a4:88:af:13:d1:41:78:a9:ff:1c:de:e1:e6:b6:69:7d:
        f5:19:50:ce:19:78:86:3c:a6:5b:79:5d:c2:18:38:4b:6f:c2:
        6b:d8:ff:7e:7b:fd:ca:a1:27:f3:8a:20:3b:bf:c2:73:76:cd:
        3d:e0:f1:5c:60:3c:7a:ce:45:0c:51:ab:46:71:d8:21:d2:f5:
        a9:31:1c:30
-----BEGIN CERTIFICATE-----
MIIEIzCCAwugAwIBAgIBGjANBgkqhkiG9w0BAQsFADBMMQswCQYDVQQGEwJVUzEP
MA0GA1UECgwGR29vZ2xlMRMwEQYDVQQLDApFbnRlcnByaXNlMRcwFQYDVQQDDA5T
aW5nbGUgUm9vdCBDQTAeFw0yNDA2MTExMTI1MTNaFw0zNDA2MTExMTI1MTNaMEcx
CzAJBgNVBAYTAlVTMQ8wDQYDVQQKDAZHb29nbGUxEzARBgNVBAsMCkVudGVycHJp
c2UxEjAQBgNVBAMMCWxvY2FsaG9zdDCCASIwDQYJKoZIhvcNAQEBBQADggEPADCC
AQoCggEBAL29v3p7583bBjAcvH7vsJxkMMPDZSz3GCtt9PqcBcPlsTr8QVIU5WpF
2fm0LpKByZa98+gxvlFhh/GnZx4miQ++nyDrZqJ4DTGtHbctD1Sp6b6LYXf9iHiR
UIBG7aTi/xs9Z7ws9AkqYsnpk29TKz2b6SUDrTrIHq9vkHOk0+fY7EoB1ckJyxhp
SqFzPy/hE64nEDfZdPakxrpGeqBhGn2sHegxbpCZv45oHqW70n9xWOsk7Rsn4Wp6
kH9skSEWcVnYlPHtf/84YkqD7E7t/vszdEK0kcyclVJkaw7sdOBu1aX14+RurL9F
t3Svub6FwacJQpXwFIOZqqy/XMtTUAMCAwEAAaOCARMwggEPMA4GA1UdDwEB/wQE
AwIHgDAJBgNVHRMEAjAAMBMGA1UdJQQMMAoGCCsGAQUFBwMBMB0GA1UdDgQWBBS1
6T01SxcbfmDesbwx6sCC68RFvDAfBgNVHSMEGDAWgBTs8OpTUz+fI9zBDjEQNwfe
3udu8zBFBggrBgEFBQcBAQQ5MDcwNQYIKwYBBQUHMAKGKWh0dHA6Ly9wa2kuZXNv
ZGVtb2FwcDIuY29tL2NhL3Jvb3QtY2EuY2VyMDoGA1UdHwQzMDEwL6AtoCuGKWh0
dHA6Ly9wa2kuZXNvZGVtb2FwcDIuY29tL2NhL3Jvb3QtY2EuY3JsMBoGA1UdEQQT
MBGCCWxvY2FsaG9zdIcEfwAAATANBgkqhkiG9w0BAQsFAAOCAQEAlT/BO8HxF4Gc
TNJ9Mkw/Xr8rTE36kUpnNNyNRniGjG8kHafR/qQlgZppDScdLULV4suLB+NtXe/1
HuJP8tl8EQJj76y/pXa667RJJJI78AGmZNeNhtvNxx8zeX+tcz9d5KqsUGNn5K6p
fHo7AAEHkGW048WTagaajh3twWaUXruhQAnrt0T8p2z7HuMWbUVrvdiRaRKL7gG4
bOuQ23vQyX38V0amkefdEb3rdPimdC4L/Z55z7+kiK8T0UF4qf8c3uHmtml99RlQ
zhl4hjymW3ldwhg4S2/Ca9j/fnv9yqEn84ogO7/Cc3bNPeDxXGA8es5FDFGrRnHY
IdL1qTEcMA==
-----END CERTIFICATE-----
