Certificate:
    Data:
        Version: 3 (0x2)
        Serial Number: 48 (0x30)
        Signature Algorithm: sha1WithRSAEncryption
        Issuer: C=US, O=Google, OU=Enterprise, CN=Enterprise Subordinate CA
        Validity
            Not Before: Aug  6 12:39:00 2021 GMT
            Not After : Jan 27 12:39:00 2027 GMT
        Subject: C=US, O=Google, OU=Enterprise, CN=localhost
        Subject Public Key Info:
            Public Key Algorithm: rsaEncryption
                RSA Public-Key: (2048 bit)
                Modulus:
                    00:b3:d1:9e:e1:25:d1:76:c1:06:d7:8c:8e:1f:e4:
                    c9:cd:99:a1:c8:d3:14:74:92:be:8a:b7:93:5d:8b:
                    ec:10:7e:9c:4f:37:48:09:3d:76:73:fe:97:d2:fb:
                    67:17:9c:f1:d0:13:c5:bf:21:4a:97:6c:56:f3:3a:
                    b2:03:4a:3a:e9:7c:6c:c1:92:2d:be:43:74:bd:ca:
                    63:03:44:64:01:f2:1e:f0:59:2b:1b:7d:31:5f:76:
                    10:8a:6b:c6:55:b2:bf:52:b5:69:a0:8e:d2:0d:62:
                    03:68:e7:88:e3:90:f6:9d:a6:83:c4:91:f4:b5:e1:
                    e7:79:8a:30:e2:6e:8e:43:e4:96:84:d9:c3:f7:83:
                    84:aa:0d:52:a8:17:58:f0:06:ab:5c:4b:4c:06:9e:
                    c4:31:32:0f:54:13:60:b9:7d:3a:0c:3d:74:06:9f:
                    a8:bf:1c:cd:e9:b2:12:53:8d:ff:b3:0a:b7:23:ee:
                    08:91:40:8a:5d:7d:ff:0e:35:dc:0e:32:47:87:42:
                    b1:33:3a:f5:71:0c:44:d1:d0:4c:6e:d5:b3:87:79:
                    08:21:3f:43:47:bd:bb:19:6a:84:49:1e:5f:c6:1d:
                    25:47:d4:c4:5c:9d:02:ef:84:cb:ac:08:66:a9:d8:
                    38:c8:0b:c7:16:e2:42:98:94:7c:02:c6:42:56:c5:
                    96:8d
                Exponent: 65537 (0x10001)
        X509v3 extensions:
            X509v3 Key Usage: critical
                Digital Signature
            X509v3 Basic Constraints: 
                CA:FALSE
            X509v3 Extended Key Usage: 
                TLS Web Server Authentication
            X509v3 Subject Key Identifier: 
                FB:11:3F:4C:0E:46:B8:AC:20:09:D5:11:EE:BB:E7:D3:76:EA:0B:CE
            X509v3 Authority Key Identifier: 
                keyid:BF:E1:1C:F0:22:48:8F:FC:3B:CF:5D:D9:ED:AE:88:70:21:DF:DD:86

            Authority Information Access: 
                CA Issuers - URI:http://pki.esodemoapp2.com/ca/tls-ca.cer

            X509v3 CRL Distribution Points: 

                Full Name:
                  URI:http://pki.esodemoapp2.com/ca/tls-ca.crl

            X509v3 Subject Alternative Name: 
                DNS:localhost
    Signature Algorithm: sha1WithRSAEncryption
         24:bd:21:3f:06:e6:c3:02:c3:75:c7:8d:14:70:56:2c:25:75:
         8d:c3:c2:d8:d2:a6:18:4d:52:ef:b8:93:db:6b:95:ec:b8:d9:
         08:64:08:24:75:30:07:31:77:14:6a:bf:67:3b:ac:b9:a4:e5:
         ad:b9:8c:0f:98:ff:bd:60:89:7e:fc:3b:e0:de:fd:2a:8a:38:
         f7:bb:71:cd:15:3a:f6:95:be:e9:50:15:9c:8d:4e:73:20:05:
         a2:c1:50:81:22:c1:50:2c:bc:01:42:88:7a:81:ff:95:f1:f2:
         55:1b:db:db:d4:46:d9:b8:ca:03:df:c0:22:f8:5b:6b:02:4f:
         2d:97:3a:a6:a5:a5:18:bc:45:58:ee:83:c0:84:25:00:67:68:
         77:14:4b:49:27:8a:36:c8:76:c7:28:2b:7d:1f:4f:6c:8f:13:
         ad:e3:b0:1b:1e:0f:c7:4e:51:bd:f4:08:f9:d0:a3:20:1f:a9:
         4b:ab:44:d6:ad:11:b5:83:ac:a9:6f:d2:07:25:a4:4b:b6:9e:
         ff:f5:7d:59:39:37:18:e8:66:4d:07:cb:cf:7f:0a:81:50:5d:
         27:f4:c3:d3:07:96:a1:c8:f0:3a:af:e9:b4:57:48:37:2d:a0:
         16:cb:d2:06:23:f9:90:92:d0:52:54:7b:71:79:e8:8e:00:f6:
         61:a3:0c:c2
-----BEGIN CERTIFICATE-----
MIIEJjCCAw6gAwIBAgIBMDANBgkqhkiG9w0BAQUFADBXMQswCQYDVQQGEwJVUzEP
MA0GA1UECgwGR29vZ2xlMRMwEQYDVQQLDApFbnRlcnByaXNlMSIwIAYDVQQDDBlF
bnRlcnByaXNlIFN1Ym9yZGluYXRlIENBMB4XDTIxMDgwNjEyMzkwMFoXDTI3MDEy
NzEyMzkwMFowRzELMAkGA1UEBhMCVVMxDzANBgNVBAoMBkdvb2dsZTETMBEGA1UE
CwwKRW50ZXJwcmlzZTESMBAGA1UEAwwJbG9jYWxob3N0MIIBIjANBgkqhkiG9w0B
AQEFAAOCAQ8AMIIBCgKCAQEAs9Ge4SXRdsEG14yOH+TJzZmhyNMUdJK+ireTXYvs
EH6cTzdICT12c/6X0vtnF5zx0BPFvyFKl2xW8zqyA0o66XxswZItvkN0vcpjA0Rk
AfIe8FkrG30xX3YQimvGVbK/UrVpoI7SDWIDaOeI45D2naaDxJH0teHneYow4m6O
Q+SWhNnD94OEqg1SqBdY8AarXEtMBp7EMTIPVBNguX06DD10Bp+ovxzN6bISU43/
swq3I+4IkUCKXX3/DjXcDjJHh0KxMzr1cQxE0dBMbtWzh3kIIT9DR727GWqESR5f
xh0lR9TEXJ0C74TLrAhmqdg4yAvHFuJCmJR8AsZCVsWWjQIDAQABo4IBCzCCAQcw
DgYDVR0PAQH/BAQDAgeAMAkGA1UdEwQCMAAwEwYDVR0lBAwwCgYIKwYBBQUHAwEw
HQYDVR0OBBYEFPsRP0wORrisIAnVEe6759N26gvOMB8GA1UdIwQYMBaAFL/hHPAi
SI/8O89d2e2uiHAh392GMEQGCCsGAQUFBwEBBDgwNjA0BggrBgEFBQcwAoYoaHR0
cDovL3BraS5lc29kZW1vYXBwMi5jb20vY2EvdGxzLWNhLmNlcjA5BgNVHR8EMjAw
MC6gLKAqhihodHRwOi8vcGtpLmVzb2RlbW9hcHAyLmNvbS9jYS90bHMtY2EuY3Js
MBQGA1UdEQQNMAuCCWxvY2FsaG9zdDANBgkqhkiG9w0BAQUFAAOCAQEAJL0hPwbm
wwLDdceNFHBWLCV1jcPC2NKmGE1S77iT22uV7LjZCGQIJHUwBzF3FGq/ZzusuaTl
rbmMD5j/vWCJfvw74N79Koo497txzRU69pW+6VAVnI1OcyAFosFQgSLBUCy8AUKI
eoH/lfHyVRvb29RG2bjKA9/AIvhbawJPLZc6pqWlGLxFWO6DwIQlAGdodxRLSSeK
Nsh2xygrfR9PbI8TreOwGx4Px05RvfQI+dCjIB+pS6tE1q0RtYOsqW/SByWkS7ae
//V9WTk3GOhmTQfLz38KgVBdJ/TD0weWocjwOq/ptFdINy2gFsvSBiP5kJLQUlR7
cXnojgD2YaMMwg==
-----END CERTIFICATE-----
